; Function Attrs: inlinehint mustprogress nounwind willreturn uwtable
define internal fastcc range(i32 0, 2) i32 @Abc_NodeIsTravIdCurrent(ptr noundef readonly captures(none) %0) unnamed_addr #4 {
  %.val2 = load ptr, ptr %0, align 8, !tbaa !70
  %2 = getelementptr i8, ptr %0, i64 16
  %.val3 = load i32, ptr %2, align 8, !tbaa !48
  %3 = getelementptr inbounds nuw i8, ptr %.val2, i64 224
  %4 = add nsw i32 %.val3, 1
  %5 = getelementptr inbounds nuw i8, ptr %.val2, i64 228
  %6 = load i32, ptr %5, align 4, !tbaa !40
  %.not.i.not.i.i = icmp slt i32 %.val3, %6
  br i1 %.not.i.not.i.i, label %Abc_NodeTravId.exit, label %7

7:                                                ; preds = %1
  %8 = load i32, ptr %3, align 8, !tbaa !41
  %9 = shl nsw i32 %8, 1
  %.not.i.i = icmp slt i32 %.val3, %9
  %.not.i.i.not.i.i = icmp sgt i32 %8, %.val3
  br i1 %.not.i.i, label %22, label %10

10:                                               ; preds = %7
  br i1 %.not.i.i.not.i.i, label %Vec_IntGrow.exit.i.i.i, label %11

11:                                               ; preds = %10
  %12 = getelementptr inbounds nuw i8, ptr %.val2, i64 232
  %13 = load ptr, ptr %12, align 8, !tbaa !42
  %.not9.i.i.i.i = icmp eq ptr %13, null
  %14 = sext i32 %4 to i64
  %15 = shl nsw i64 %14, 2
  br i1 %.not9.i.i.i.i, label %18, label %16

16:                                               ; preds = %11
  %17 = tail call ptr @realloc(ptr noundef nonnull %13, i64 noundef %15) #24
  br label %20

18:                                               ; preds = %11
  %19 = tail call noalias ptr @malloc(i64 noundef %15) #23
  br label %20

20:                                               ; preds = %18, %16
  %21 = phi ptr [ %17, %16 ], [ %19, %18 ]
  store ptr %21, ptr %12, align 8, !tbaa !42
  br label %Vec_IntGrow.exit.sink.split.i.i.i

22:                                               ; preds = %7
  br i1 %.not.i.i.not.i.i, label %Vec_IntGrow.exit.i.i.i, label %23

23:                                               ; preds = %22
  %24 = getelementptr inbounds nuw i8, ptr %.val2, i64 232
  %25 = load ptr, ptr %24, align 8, !tbaa !42
  %.not9.i21.i.i.i = icmp eq ptr %25, null
  %26 = sext i32 %9 to i64
  %27 = shl nsw i64 %26, 2
  br i1 %.not9.i21.i.i.i, label %30, label %28

28:                                               ; preds = %23
  %29 = tail call ptr @realloc(ptr noundef nonnull %25, i64 noundef %27) #24
  br label %32

30:                                               ; preds = %23
  %31 = tail call noalias ptr @malloc(i64 noundef %27) #23
  br label %32

32:                                               ; preds = %30, %28
  %33 = phi ptr [ %29, %28 ], [ %31, %30 ]
  store ptr %33, ptr %24, align 8, !tbaa !42
  br label %Vec_IntGrow.exit.sink.split.i.i.i

Vec_IntGrow.exit.sink.split.i.i.i:                ; preds = %32, %20
  %.sink.i.i.i = phi i32 [ %9, %32 ], [ %4, %20 ]
  store i32 %.sink.i.i.i, ptr %3, align 8, !tbaa !41
  %.pre.i.i = load i32, ptr %5, align 4, !tbaa !40
  br label %Vec_IntGrow.exit.i.i.i

Vec_IntGrow.exit.i.i.i:                           ; preds = %Vec_IntGrow.exit.sink.split.i.i.i, %22, %10
  %34 = phi i32 [ %.pre.i.i, %Vec_IntGrow.exit.sink.split.i.i.i ], [ %6, %22 ], [ %6, %10 ]
  %.not3.i.i = icmp sgt i32 %34, %.val3
  br i1 %.not3.i.i, label %._crit_edge.i.i.i, label %.lr.ph.i.i.i

.lr.ph.i.i.i:                                     ; preds = %Vec_IntGrow.exit.i.i.i
  %35 = getelementptr inbounds nuw i8, ptr %.val2, i64 232
  %36 = load ptr, ptr %35, align 8, !tbaa !42
  %37 = sext i32 %34 to i64
  %38 = shl nsw i64 %37, 2
  %scevgep.i.i.i = getelementptr i8, ptr %36, i64 %38
  %39 = sub i32 %.val3, %34
  %40 = zext i32 %39 to i64
  %41 = shl nuw nsw i64 %40, 2
  %42 = add nuw nsw i64 %41, 4
  tail call void @llvm.memset.p0.i64(ptr noundef nonnull align 4 dereferenceable(1) %scevgep.i.i.i, i8 0, i64 %42, i1 false), !tbaa !29
  br label %._crit_edge.i.i.i

._crit_edge.i.i.i:                                ; preds = %.lr.ph.i.i.i, %Vec_IntGrow.exit.i.i.i
  store i32 %4, ptr %5, align 4, !tbaa !40
  %.val.pre = load ptr, ptr %0, align 8, !tbaa !70
  br label %Abc_NodeTravId.exit

Abc_NodeTravId.exit:                              ; preds = %1, %._crit_edge.i.i.i
  %.val = phi ptr [ %.val2, %1 ], [ %.val.pre, %._crit_edge.i.i.i ]
  %43 = getelementptr i8, ptr %.val2, i64 232
  %.val.i.i = load ptr, ptr %43, align 8, !tbaa !42
  %44 = sext i32 %.val3 to i64
  %45 = getelementptr inbounds i32, ptr %.val.i.i, i64 %44
  %46 = load i32, ptr %45, align 4, !tbaa !29
  %47 = getelementptr inbounds nuw i8, ptr %.val, i64 216
  %48 = load i32, ptr %47, align 8, !tbaa !99
  %49 = icmp eq i32 %46, %48
  %50 = zext i1 %49 to i32
  ret i32 %50
}